target datalayout = "e-m:e-p270:32:32-p271:32:32-p272:64:64-i64:64-i128:128-f80:128-n8:16:32:64-S128"
target triple = "x86_64-pc-linux-gnu"

%struct.job_record = type { i32, ptr, ptr, ptr, ptr, i16, i32, i32, i32, ptr, i32, ptr, ptr, i16, ptr, double, i64, ptr, ptr, ptr, ptr, ptr, ptr, i32, ptr, i32, i64, i64, i32, i32, ptr, i16, i64, i64, i8, i32, ptr, ptr, ptr, ptr, ptr, ptr, ptr, ptr, i32, ptr, ptr, i32, ptr, i32, ptr, i32, ptr, i32, ptr, ptr, ptr, ptr, ptr, ptr, i32, i16, i64, ptr, ptr, ptr, ptr, %struct.acct_policy_limit_set_t, i16, ptr, ptr, ptr, ptr, ptr, i32, ptr, ptr, ptr, ptr, ptr, i32, i32, ptr, ptr, ptr, i16, ptr, ptr, i8, ptr, ptr, i64, i64, i8, i32, i32, i8, i32, ptr, i32, i64, i32, ptr, ptr, ptr, i8, i16, i64, i32, ptr, ptr, ptr, ptr, ptr, i16, i32, ptr, ptr, ptr, ptr, i32, ptr, i32, i16, i64, ptr, i32, i32, ptr, i64, ptr, ptr, i64, i32, i32, i64, i32, i32, ptr, ptr, ptr, ptr, ptr, ptr, ptr, ptr, ptr, ptr, ptr, ptr, i32, ptr, i16, i16, i16, i16, ptr, i32, i32, i8, i64 }
%struct.acct_policy_limit_set_t = type { i16, i16, ptr }
%struct.slurm_step_id_msg = type { i64, i32, i32, i32 }
%struct.agent_arg_t = type { i32, i16, i32, i8, ptr, ptr, i16, i32, ptr, i16 }
%struct.stepmgr_ops_t = type { ptr, ptr, ptr, ptr, ptr, ptr, ptr, ptr, ptr, ptr }
%struct.node_record = type { ptr, ptr, i16, i64, i64, ptr, ptr, ptr, i16, ptr, i16, i16, i32, i32, i64, ptr, i16, i16, ptr, ptr, ptr, ptr, ptr, i64, i64, ptr, ptr, ptr, ptr, i32, ptr, ptr, i64, i64, i32, ptr, i64, ptr, i32, i16, ptr, ptr, i32, ptr, i32, i8, ptr, i32, i16, i16, ptr, i16, i64, i16, i64, ptr, i64, i32, i16, i64, i16, ptr, i16, i64, ptr, i64, i16, i32, i16, ptr, ptr, ptr, i16, i32, i16, i16, i32, ptr, i16, i32 }
%struct.srun_user_msg = type { i32, ptr }
%struct.job_notify_msg = type { ptr, %struct.slurm_step_id_msg }

@.str = private unnamed_addr constant [12 x i8] c"srun_comm.c\00", align 1
@stepmgr_ops = external global ptr, align 8
@__func__.srun_user_message = private unnamed_addr constant [18 x i8] c"srun_user_message\00", align 1
@__func__._srun_agent_launch = private unnamed_addr constant [19 x i8] c"_srun_agent_launch\00", align 1
@.str.1 = private unnamed_addr constant [46 x i8] c"_find_first_node_record passed null bitstring\00", align 1
@node_record_table_ptr = external global ptr, align 8

; Function Attrs: nounwind uwtable
define internal ptr @_find_first_node_record(ptr noundef %0) #0 {
  %2 = alloca ptr, align 8
  %3 = alloca ptr, align 8
  %4 = alloca i32, align 4
  %5 = alloca i32, align 4
  store ptr %0, ptr %3, align 8
  call void @llvm.lifetime.start.p0(i64 4, ptr %4) #6
  %6 = load ptr, ptr %3, align 8
  %7 = icmp eq ptr %6, null
  br i1 %7, label %8, label %10

8:                                                ; preds = %1
  %9 = call i32 (ptr, ...) @error(ptr noundef @.str.1)
  store ptr null, ptr %2, align 8
  store i32 1, ptr %5, align 4
  br label %23

10:                                               ; preds = %1
  %11 = load ptr, ptr %3, align 8
  %12 = call i64 @bit_ffs(ptr noundef %11)
  %13 = trunc i64 %12 to i32
  store i32 %13, ptr %4, align 4
  %14 = load i32, ptr %4, align 4
  %15 = icmp slt i32 %14, 0
  br i1 %15, label %16, label %17

16:                                               ; preds = %10
  store ptr null, ptr %2, align 8
  store i32 1, ptr %5, align 4
  br label %23

17:                                               ; preds = %10
  %18 = load ptr, ptr @node_record_table_ptr, align 8
  %19 = load i32, ptr %4, align 4
  %20 = sext i32 %19 to i64
  %21 = getelementptr inbounds ptr, ptr %18, i64 %20
  %22 = load ptr, ptr %21, align 8
  store ptr %22, ptr %2, align 8
  store i32 1, ptr %5, align 4
  br label %23

23:                                               ; preds = %17, %16, %8
  call void @llvm.lifetime.end.p0(i64 4, ptr %4) #6
  %24 = load ptr, ptr %2, align 8
  ret ptr %24
}

; Function Attrs: nounwind uwtable
define internal void @_srun_agent_launch(ptr noundef %0, ptr noundef %1, i32 noundef %2, ptr noundef %3, i32 noundef %4, i16 noundef zeroext %5) #0 {
  %7 = alloca ptr, align 8
  %8 = alloca ptr, align 8
  %9 = alloca i32, align 4
  %10 = alloca ptr, align 8
  %11 = alloca i32, align 4
  %12 = alloca i16, align 2
  %13 = alloca ptr, align 8
  store ptr %0, ptr %7, align 8
  store ptr %1, ptr %8, align 8
  store i32 %2, ptr %9, align 4
  store ptr %3, ptr %10, align 8
  store i32 %4, ptr %11, align 4
  store i16 %5, ptr %12, align 2
  call void @llvm.lifetime.start.p0(i64 8, ptr %13) #6
  %14 = call ptr @slurm_xcalloc(i64 noundef 1, i64 noundef 56, i1 noundef zeroext true, i1 noundef zeroext false, ptr noundef @.str, i32 noundef 61, ptr noundef @__func__._srun_agent_launch)
  store ptr %14, ptr %13, align 8
  %15 = load ptr, ptr %13, align 8
  %16 = getelementptr inbounds nuw %struct.agent_arg_t, ptr %15, i32 0, i32 0
  store i32 1, ptr %16, align 8
  %17 = load ptr, ptr %13, align 8
  %18 = getelementptr inbounds nuw %struct.agent_arg_t, ptr %17, i32 0, i32 1
  store i16 0, ptr %18, align 4
  %19 = load ptr, ptr %7, align 8
  %20 = load ptr, ptr %13, align 8
  %21 = getelementptr inbounds nuw %struct.agent_arg_t, ptr %20, i32 0, i32 4
  store ptr %19, ptr %21, align 8
  %22 = load ptr, ptr %8, align 8
  %23 = call ptr @hostlist_create(ptr noundef %22)
  %24 = load ptr, ptr %13, align 8
  %25 = getelementptr inbounds nuw %struct.agent_arg_t, ptr %24, i32 0, i32 5
  store ptr %23, ptr %25, align 8
  %26 = load i32, ptr %9, align 4
  %27 = load ptr, ptr %13, align 8
  %28 = getelementptr inbounds nuw %struct.agent_arg_t, ptr %27, i32 0, i32 7
  store i32 %26, ptr %28, align 4
  %29 = load ptr, ptr %10, align 8
  %30 = load ptr, ptr %13, align 8
  %31 = getelementptr inbounds nuw %struct.agent_arg_t, ptr %30, i32 0, i32 8
  store ptr %29, ptr %31, align 8
  %32 = load ptr, ptr %13, align 8
  %33 = load i32, ptr %11, align 4
  call void @set_agent_arg_r_uid(ptr noundef %32, i32 noundef %33)
  %34 = load i16, ptr %12, align 2
  %35 = zext i16 %34 to i32
  %36 = icmp slt i32 11008, %35
  br i1 %36, label %37, label %38

37:                                               ; preds = %6
  br label %41

38:                                               ; preds = %6
  %39 = load i16, ptr %12, align 2
  %40 = zext i16 %39 to i32
  br label %41

41:                                               ; preds = %38, %37
  %42 = phi i32 [ 11008, %37 ], [ %40, %38 ]
  %43 = trunc i32 %42 to i16
  %44 = load ptr, ptr %13, align 8
  %45 = getelementptr inbounds nuw %struct.agent_arg_t, ptr %44, i32 0, i32 6
  store i16 %43, ptr %45, align 8
  %46 = load ptr, ptr @stepmgr_ops, align 8
  %47 = getelementptr inbounds nuw %struct.stepmgr_ops_t, ptr %46, i32 0, i32 8
  %48 = load ptr, ptr %47, align 8
  %49 = load ptr, ptr %13, align 8
  call void %48(ptr noundef %49)
  call void @llvm.lifetime.end.p0(i64 8, ptr %13) #6
  ret void
}

; Function Attrs: nounwind uwtable
define dso_local i32 @srun_user_message(ptr noundef %0, ptr noundef %1) #0 {
  %3 = alloca i32, align 4
  %4 = alloca ptr, align 8
  %5 = alloca ptr, align 8
  %6 = alloca ptr, align 8
  %7 = alloca ptr, align 8
  %8 = alloca i32, align 4
  %9 = alloca ptr, align 8
  %10 = alloca ptr, align 8
  store ptr %0, ptr %4, align 8
  store ptr %1, ptr %5, align 8
  call void @llvm.lifetime.start.p0(i64 8, ptr %6) #6
  call void @llvm.lifetime.start.p0(i64 8, ptr %7) #6
  %11 = load ptr, ptr %4, align 8
  %12 = getelementptr inbounds nuw %struct.job_record, ptr %11, i32 0, i32 60
  %13 = load i32, ptr %12, align 8
  %14 = and i32 %13, 255
  %15 = icmp eq i32 %14, 0
  br i1 %15, label %23, label %16

16:                                               ; preds = %2
  %17 = load ptr, ptr %4, align 8
  %18 = getelementptr inbounds nuw %struct.job_record, ptr %17, i32 0, i32 60
  %19 = load i32, ptr %18, align 8
  %20 = and i32 %19, 255
  %21 = icmp eq i32 %20, 1
  br i1 %21, label %23, label %22

22:                                               ; preds = %16
  store i32 2021, ptr %3, align 4
  store i32 1, ptr %8, align 4
  br label %120

23:                                               ; preds = %16, %2
  %24 = load ptr, ptr %4, align 8
  %25 = getelementptr inbounds nuw %struct.job_record, ptr %24, i32 0, i32 85
  %26 = load i16, ptr %25, align 8
  %27 = zext i16 %26 to i32
  %28 = icmp ne i32 %27, 0
  br i1 %28, label %29, label %72

29:                                               ; preds = %23
  %30 = load ptr, ptr %4, align 8
  %31 = getelementptr inbounds nuw %struct.job_record, ptr %30, i32 0, i32 116
  %32 = load ptr, ptr %31, align 8
  %33 = icmp ne ptr %32, null
  br i1 %33, label %34, label %72

34:                                               ; preds = %29
  %35 = load ptr, ptr %4, align 8
  %36 = getelementptr inbounds nuw %struct.job_record, ptr %35, i32 0, i32 116
  %37 = load ptr, ptr %36, align 8
  %38 = getelementptr inbounds i8, ptr %37, i64 0
  %39 = load i8, ptr %38, align 1
  %40 = sext i8 %39 to i32
  %41 = icmp ne i32 %40, 0
  br i1 %41, label %42, label %72

42:                                               ; preds = %34
  %43 = call ptr @slurm_xcalloc(i64 noundef 1, i64 noundef 128, i1 noundef zeroext true, i1 noundef zeroext false, ptr noundef @.str, i32 noundef 378, ptr noundef @__func__.srun_user_message)
  store ptr %43, ptr %6, align 8
  %44 = load ptr, ptr %6, align 8
  %45 = load ptr, ptr %4, align 8
  %46 = getelementptr inbounds nuw %struct.job_record, ptr %45, i32 0, i32 85
  %47 = load i16, ptr %46, align 8
  %48 = load ptr, ptr %4, align 8
  %49 = getelementptr inbounds nuw %struct.job_record, ptr %48, i32 0, i32 116
  %50 = load ptr, ptr %49, align 8
  call void @slurm_set_addr(ptr noundef %44, i16 noundef zeroext %47, ptr noundef %50)
  %51 = call ptr @slurm_xcalloc(i64 noundef 1, i64 noundef 16, i1 noundef zeroext true, i1 noundef zeroext false, ptr noundef @.str, i32 noundef 380, ptr noundef @__func__.srun_user_message)
  store ptr %51, ptr %7, align 8
  %52 = load ptr, ptr %4, align 8
  %53 = getelementptr inbounds nuw %struct.job_record, ptr %52, i32 0, i32 53
  %54 = load i32, ptr %53, align 8
  %55 = load ptr, ptr %7, align 8
  %56 = getelementptr inbounds nuw %struct.srun_user_msg, ptr %55, i32 0, i32 0
  store i32 %54, ptr %56, align 8
  %57 = load ptr, ptr %5, align 8
  %58 = call ptr @xstrdup(ptr noundef %57)
  %59 = load ptr, ptr %7, align 8
  %60 = getelementptr inbounds nuw %struct.srun_user_msg, ptr %59, i32 0, i32 1
  store ptr %58, ptr %60, align 8
  %61 = load ptr, ptr %6, align 8
  %62 = load ptr, ptr %4, align 8
  %63 = getelementptr inbounds nuw %struct.job_record, ptr %62, i32 0, i32 116
  %64 = load ptr, ptr %63, align 8
  %65 = load ptr, ptr %7, align 8
  %66 = load ptr, ptr %4, align 8
  %67 = getelementptr inbounds nuw %struct.job_record, ptr %66, i32 0, i32 150
  %68 = load i32, ptr %67, align 8
  %69 = load ptr, ptr %4, align 8
  %70 = getelementptr inbounds nuw %struct.job_record, ptr %69, i32 0, i32 123
  %71 = load i16, ptr %70, align 4
  call void @_srun_agent_launch(ptr noundef %61, ptr noundef %64, i32 noundef 7005, ptr noundef %65, i32 noundef %68, i16 noundef zeroext %71)
  store i32 0, ptr %3, align 4
  store i32 1, ptr %8, align 4
  br label %120

72:                                               ; preds = %34, %29, %23
  %73 = load ptr, ptr %4, align 8
  %74 = getelementptr inbounds nuw %struct.job_record, ptr %73, i32 0, i32 13
  %75 = load i16, ptr %74, align 8
  %76 = zext i16 %75 to i32
  %77 = icmp ne i32 %76, 0
  br i1 %77, label %78, label %118

78:                                               ; preds = %72
  %79 = load ptr, ptr %4, align 8
  %80 = getelementptr inbounds nuw %struct.job_record, ptr %79, i32 0, i32 60
  %81 = load i32, ptr %80, align 8
  %82 = and i32 %81, 255
  %83 = icmp eq i32 %82, 1
  br i1 %83, label %84, label %118

84:                                               ; preds = %78
  call void @llvm.lifetime.start.p0(i64 8, ptr %9) #6
  call void @llvm.lifetime.start.p0(i64 8, ptr %10) #6
  %85 = load ptr, ptr %4, align 8
  %86 = getelementptr inbounds nuw %struct.job_record, ptr %85, i32 0, i32 77
  %87 = load ptr, ptr %86, align 8
  %88 = call ptr @_find_first_node_record(ptr noundef %87)
  store ptr %88, ptr %9, align 8
  %89 = load ptr, ptr %9, align 8
  %90 = icmp eq ptr %89, null
  br i1 %90, label %91, label %92

91:                                               ; preds = %84
  store i32 2037, ptr %3, align 4
  store i32 1, ptr %8, align 4
  br label %117

92:                                               ; preds = %84
  %93 = call ptr @slurm_xcalloc(i64 noundef 1, i64 noundef 32, i1 noundef zeroext true, i1 noundef zeroext false, ptr noundef @.str, i32 noundef 403, ptr noundef @__func__.srun_user_message)
  store ptr %93, ptr %10, align 8
  %94 = load ptr, ptr %4, align 8
  %95 = getelementptr inbounds nuw %struct.job_record, ptr %94, i32 0, i32 53
  %96 = load i32, ptr %95, align 8
  %97 = load ptr, ptr %10, align 8
  %98 = getelementptr inbounds nuw %struct.job_notify_msg, ptr %97, i32 0, i32 1
  %99 = getelementptr inbounds nuw %struct.slurm_step_id_msg, ptr %98, i32 0, i32 1
  store i32 %96, ptr %99, align 8
  %100 = load ptr, ptr %10, align 8
  %101 = getelementptr inbounds nuw %struct.job_notify_msg, ptr %100, i32 0, i32 1
  %102 = getelementptr inbounds nuw %struct.slurm_step_id_msg, ptr %101, i32 0, i32 3
  store i32 -2, ptr %102, align 8
  %103 = load ptr, ptr %10, align 8
  %104 = getelementptr inbounds nuw %struct.job_notify_msg, ptr %103, i32 0, i32 1
  %105 = getelementptr inbounds nuw %struct.slurm_step_id_msg, ptr %104, i32 0, i32 2
  store i32 -2, ptr %105, align 4
  %106 = load ptr, ptr %5, align 8
  %107 = call ptr @xstrdup(ptr noundef %106)
  %108 = load ptr, ptr %10, align 8
  %109 = getelementptr inbounds nuw %struct.job_notify_msg, ptr %108, i32 0, i32 0
  store ptr %107, ptr %109, align 8
  %110 = load ptr, ptr %9, align 8
  %111 = getelementptr inbounds nuw %struct.node_record, ptr %110, i32 0, i32 37
  %112 = load ptr, ptr %111, align 8
  %113 = load ptr, ptr %10, align 8
  %114 = load ptr, ptr %9, align 8
  %115 = getelementptr inbounds nuw %struct.node_record, ptr %114, i32 0, i32 53
  %116 = load i16, ptr %115, align 8
  call void @_srun_agent_launch(ptr noundef null, ptr noundef %112, i32 noundef 4022, ptr noundef %113, i32 noundef -1, i16 noundef zeroext %116)
  store i32 0, ptr %3, align 4
  store i32 1, ptr %8, align 4
  br label %117

117:                                              ; preds = %92, %91
  call void @llvm.lifetime.end.p0(i64 8, ptr %10) #6
  call void @llvm.lifetime.end.p0(i64 8, ptr %9) #6
  br label %120

118:                                              ; preds = %78, %72
  br label %119

119:                                              ; preds = %118
  store i32 2037, ptr %3, align 4
  store i32 1, ptr %8, align 4
  br label %120

120:                                              ; preds = %119, %117, %42, %22
  call void @llvm.lifetime.end.p0(i64 8, ptr %7) #6
  call void @llvm.lifetime.end.p0(i64 8, ptr %6) #6
  %121 = load i32, ptr %3, align 4
  ret i32 %121
}