; Function Attrs: nounwind uwtable
define dso_local range(i32 0, 2038) i32 @srun_user_message(ptr noundef readonly captures(none) %0, ptr noundef %1) local_unnamed_addr #0 {
  %3 = getelementptr inbounds nuw i8, ptr %0, i64 448
  %4 = load i32, ptr %3, align 8
  %5 = and i32 %4, 255
  %switch = icmp samesign ult i32 %5, 2
  br i1 %switch, label %6, label %_find_first_node_record.exit.thread

6:                                                ; preds = %2
  %7 = getelementptr inbounds nuw i8, ptr %0, i64 640
  %8 = load i16, ptr %7, align 8
  %.not = icmp eq i16 %8, 0
  br i1 %.not, label %40, label %9

9:                                                ; preds = %6
  %10 = getelementptr inbounds nuw i8, ptr %0, i64 856
  %11 = load ptr, ptr %10, align 8
  %.not33 = icmp eq ptr %11, null
  br i1 %.not33, label %40, label %12

12:                                               ; preds = %9
  %13 = load i8, ptr %11, align 1
  %.not34 = icmp eq i8 %13, 0
  br i1 %.not34, label %40, label %14

14:                                               ; preds = %12
  %15 = tail call ptr @slurm_xcalloc(i64 noundef 1, i64 noundef 128, i1 noundef zeroext true, i1 noundef zeroext false, ptr noundef nonnull @.str, i32 noundef 378, ptr noundef nonnull @__func__.srun_user_message) #6
  %16 = load i16, ptr %7, align 8
  %17 = load ptr, ptr %10, align 8
  tail call void @slurm_set_addr(ptr noundef %15, i16 noundef zeroext %16, ptr noundef %17) #6
  %18 = tail call ptr @slurm_xcalloc(i64 noundef 1, i64 noundef 16, i1 noundef zeroext true, i1 noundef zeroext false, ptr noundef nonnull @.str, i32 noundef 380, ptr noundef nonnull @__func__.srun_user_message) #6
  %19 = getelementptr inbounds nuw i8, ptr %0, i64 392
  %20 = load i32, ptr %19, align 8
  store i32 %20, ptr %18, align 8
  %21 = tail call ptr @xstrdup(ptr noundef %1) #6
  %22 = getelementptr inbounds nuw i8, ptr %18, i64 8
  store ptr %21, ptr %22, align 8
  %23 = load ptr, ptr %10, align 8
  %24 = getelementptr inbounds nuw i8, ptr %0, i64 1096
  %25 = load i32, ptr %24, align 8
  %26 = getelementptr inbounds nuw i8, ptr %0, i64 908
  %27 = load i16, ptr %26, align 4
  %28 = tail call ptr @slurm_xcalloc(i64 noundef 1, i64 noundef 56, i1 noundef zeroext true, i1 noundef zeroext false, ptr noundef nonnull @.str, i32 noundef 61, ptr noundef nonnull @__func__._srun_agent_launch) #6
  store i32 1, ptr %28, align 8
  %29 = getelementptr inbounds nuw i8, ptr %28, i64 4
  store i16 0, ptr %29, align 4
  %30 = getelementptr inbounds nuw i8, ptr %28, i64 16
  store ptr %15, ptr %30, align 8
  %31 = tail call ptr @hostlist_create(ptr noundef %23) #6
  %32 = getelementptr inbounds nuw i8, ptr %28, i64 24
  store ptr %31, ptr %32, align 8
  %33 = getelementptr inbounds nuw i8, ptr %28, i64 36
  store i32 7005, ptr %33, align 4
  %34 = getelementptr inbounds nuw i8, ptr %28, i64 40
  store ptr %18, ptr %34, align 8
  tail call void @set_agent_arg_r_uid(ptr noundef nonnull %28, i32 noundef %25) #6
  %35 = tail call i16 @llvm.umin.i16(i16 %27, i16 11008)
  %36 = getelementptr inbounds nuw i8, ptr %28, i64 32
  store i16 %35, ptr %36, align 8
  %37 = load ptr, ptr @stepmgr_ops, align 8
  %38 = getelementptr inbounds nuw i8, ptr %37, i64 64
  %39 = load ptr, ptr %38, align 8
  tail call void %39(ptr noundef nonnull %28) #6
  br label %_find_first_node_record.exit.thread

40:                                               ; preds = %12, %9, %6
  %41 = getelementptr inbounds nuw i8, ptr %0, i64 88
  %42 = load i16, ptr %41, align 8
  %.not35 = icmp ne i16 %42, 0
  %43 = icmp eq i32 %5, 1
  %or.cond = and i1 %43, %.not35
  br i1 %or.cond, label %44, label %_find_first_node_record.exit.thread

44:                                               ; preds = %40
  %45 = getelementptr inbounds nuw i8, ptr %0, i64 584
  %46 = load ptr, ptr %45, align 8
  %47 = icmp eq ptr %46, null
  br i1 %47, label %48, label %50

48:                                               ; preds = %44
  %49 = tail call i32 (ptr, ...) @error(ptr noundef nonnull @.str.1) #6
  br label %_find_first_node_record.exit.thread

50:                                               ; preds = %44
  %51 = tail call i64 @bit_ffs(ptr noundef nonnull %46) #6
  %52 = and i64 %51, 2147483648
  %.not.i = icmp eq i64 %52, 0
  br i1 %.not.i, label %_find_first_node_record.exit, label %_find_first_node_record.exit.thread

_find_first_node_record.exit:                     ; preds = %50
  %53 = load ptr, ptr @node_record_table_ptr, align 8
  %54 = and i64 %51, 2147483647
  %55 = getelementptr inbounds nuw ptr, ptr %53, i64 %54
  %56 = load ptr, ptr %55, align 8
  %57 = icmp eq ptr %56, null
  br i1 %57, label %_find_first_node_record.exit.thread, label %58

58:                                               ; preds = %_find_first_node_record.exit
  %59 = tail call ptr @slurm_xcalloc(i64 noundef 1, i64 noundef 32, i1 noundef zeroext true, i1 noundef zeroext false, ptr noundef nonnull @.str, i32 noundef 403, ptr noundef nonnull @__func__.srun_user_message) #6
  %60 = getelementptr inbounds nuw i8, ptr %0, i64 392
  %61 = load i32, ptr %60, align 8
  %62 = getelementptr inbounds nuw i8, ptr %59, i64 16
  store i32 %61, ptr %62, align 8
  %63 = getelementptr inbounds nuw i8, ptr %59, i64 24
  store i32 -2, ptr %63, align 8
  %64 = getelementptr inbounds nuw i8, ptr %59, i64 20
  store i32 -2, ptr %64, align 4
  %65 = tail call ptr @xstrdup(ptr noundef %1) #6
  store ptr %65, ptr %59, align 8
  %66 = getelementptr inbounds nuw i8, ptr %56, i64 272
  %67 = load ptr, ptr %66, align 8
  %68 = getelementptr inbounds nuw i8, ptr %56, i64 368
  %69 = load i16, ptr %68, align 8
  %70 = tail call ptr @slurm_xcalloc(i64 noundef 1, i64 noundef 56, i1 noundef zeroext true, i1 noundef zeroext false, ptr noundef nonnull @.str, i32 noundef 61, ptr noundef nonnull @__func__._srun_agent_launch) #6
  store i32 1, ptr %70, align 8
  %71 = getelementptr inbounds nuw i8, ptr %70, i64 4
  store i16 0, ptr %71, align 4
  %72 = getelementptr inbounds nuw i8, ptr %70, i64 16
  store ptr null, ptr %72, align 8
  %73 = tail call ptr @hostlist_create(ptr noundef %67) #6
  %74 = getelementptr inbounds nuw i8, ptr %70, i64 24
  store ptr %73, ptr %74, align 8
  %75 = getelementptr inbounds nuw i8, ptr %70, i64 36
  store i32 4022, ptr %75, align 4
  %76 = getelementptr inbounds nuw i8, ptr %70, i64 40
  store ptr %59, ptr %76, align 8
  tail call void @set_agent_arg_r_uid(ptr noundef nonnull %70, i32 noundef -1) #6
  %77 = tail call i16 @llvm.umin.i16(i16 %69, i16 11008)
  %78 = getelementptr inbounds nuw i8, ptr %70, i64 32
  store i16 %77, ptr %78, align 8
  %79 = load ptr, ptr @stepmgr_ops, align 8
  %80 = getelementptr inbounds nuw i8, ptr %79, i64 64
  %81 = load ptr, ptr %80, align 8
  tail call void %81(ptr noundef nonnull %70) #6
  br label %_find_first_node_record.exit.thread

_find_first_node_record.exit.thread:              ; preds = %50, %48, %2, %40, %58, %_find_first_node_record.exit, %14
  %.0 = phi i32 [ 0, %14 ], [ 2021, %2 ], [ 0, %58 ], [ 2037, %_find_first_node_record.exit ], [ 2037, %40 ], [ 2037, %48 ], [ 2037, %50 ]
  ret i32 %.0
}